; Function Attrs: nofree norecurse nosync nounwind memory(read, inaccessiblemem: none) uwtable
define dso_local i32 @slurm_step_layout_host_id(ptr noundef readonly captures(none) %0, i32 noundef %1) local_unnamed_addr #6 {
  %3 = getelementptr inbounds nuw i8, ptr %0, i64 64
  %4 = load ptr, ptr %3, align 8
  %.not = icmp eq ptr %4, null
  br i1 %.not, label %.loopexit, label %5

5:                                                ; preds = %2
  %6 = getelementptr inbounds nuw i8, ptr %0, i64 80
  %7 = load ptr, ptr %6, align 8
  %.not19 = icmp eq ptr %7, null
  br i1 %.not19, label %.loopexit, label %8

8:                                                ; preds = %5
  %9 = getelementptr inbounds nuw i8, ptr %0, i64 72
  %10 = load i32, ptr %9, align 8
  %11 = add i32 %10, -1
  %12 = icmp ugt i32 %1, %11
  br i1 %12, label %.loopexit, label %.preheader20

.preheader20:                                     ; preds = %8
  %13 = getelementptr inbounds nuw i8, ptr %0, i64 40
  %14 = load i32, ptr %13, align 8
  %.not25 = icmp eq i32 %14, 0
  br i1 %.not25, label %.loopexit, label %.preheader.preheader

.preheader.preheader:                             ; preds = %.preheader20
  %wide.trip.count33 = zext i32 %14 to i64
  br label %.preheader

.preheader:                                       ; preds = %.preheader.preheader, %._crit_edge
  %indvars.iv30 = phi i64 [ 0, %.preheader.preheader ], [ %indvars.iv.next31, %._crit_edge ]
  %15 = getelementptr inbounds nuw i16, ptr %4, i64 %indvars.iv30
  %16 = load i16, ptr %15, align 2
  %.not26 = icmp eq i16 %16, 0
  br i1 %.not26, label %._crit_edge, label %.lr.ph

.lr.ph:                                           ; preds = %.preheader
  %17 = getelementptr inbounds nuw ptr, ptr %7, i64 %indvars.iv30
  %18 = load ptr, ptr %17, align 8
  %wide.trip.count = zext i16 %16 to i64
  br label %20

19:                                               ; preds = %20
  %indvars.iv.next = add nuw nsw i64 %indvars.iv, 1
  %exitcond.not = icmp eq i64 %indvars.iv.next, %wide.trip.count
  br i1 %exitcond.not, label %._crit_edge, label %20, !llvm.loop !28

20:                                               ; preds = %.lr.ph, %19
  %indvars.iv = phi i64 [ 0, %.lr.ph ], [ %indvars.iv.next, %19 ]
  %21 = getelementptr inbounds nuw i32, ptr %18, i64 %indvars.iv
  %22 = load i32, ptr %21, align 4
  %23 = icmp eq i32 %22, %1
  br i1 %23, label %.loopexit.loopexit, label %19

._crit_edge:                                      ; preds = %19, %.preheader
  %indvars.iv.next31 = add nuw nsw i64 %indvars.iv30, 1
  %exitcond34.not = icmp eq i64 %indvars.iv.next31, %wide.trip.count33
  br i1 %exitcond34.not, label %.loopexit, label %.preheader, !llvm.loop !29

.loopexit.loopexit:                               ; preds = %20
  %24 = trunc nuw nsw i64 %indvars.iv30 to i32
  br label %.loopexit

.loopexit:                                        ; preds = %._crit_edge, %.loopexit.loopexit, %.preheader20, %2, %5, %8
  %.017 = phi i32 [ -1, %8 ], [ -1, %5 ], [ -1, %2 ], [ -1, %.preheader20 ], [ %24, %.loopexit.loopexit ], [ -1, %._crit_edge ]
  ret i32 %.017
}